target datalayout = "e-m:e-p270:32:32-p271:32:32-p272:64:64-i64:64-i128:128-f80:128-n8:16:32:64-S128"
target triple = "x86_64-pc-linux-gnu"

%struct.LodePNGColorMode = type { i32, i32, ptr, i64, i32, i32, i32, i32 }
%struct.LodePNGInfo = type { i32, i32, i32, %struct.LodePNGColorMode, i32, i32, i32, i32, i64, ptr, ptr, i64, ptr, ptr, ptr, ptr, i32, ptr, i32, i32, %struct.LodePNGTime, i32, i32, i32, i32, i32, i32, i32, i32, i32, i32, i32, i32, i32, i32, i32, i32, i32, i32, ptr, ptr, i32, i32, i32, i32, i32, i32, i32, i32, i32, i32, i32, i32, i32, i32, i32, i32, i32, i32, i32, i32, i32, i32, i32, i32, i32, [3 x ptr], [3 x i64] }
%struct.LodePNGTime = type { i32, i32, i32, i32, i32, i32 }

; Function Attrs: mustprogress nounwind uwtable
define internal void @_ZL12lodepng_freePv(ptr noundef %0) #3 {
  %2 = alloca ptr, align 8
  store ptr %0, ptr %2, align 8, !tbaa !44
  %3 = load ptr, ptr %2, align 8, !tbaa !44
  call void @free(ptr noundef %3) #17
  ret void
}

; Function Attrs: mustprogress nounwind uwtable
define internal void @_ZL14lodepng_memcpyPvPKvm(ptr noalias noundef %0, ptr noalias noundef %1, i64 noundef %2) #3 {
  %4 = alloca ptr, align 8
  %5 = alloca ptr, align 8
  %6 = alloca i64, align 8
  %7 = alloca i64, align 8
  store ptr %0, ptr %4, align 8, !tbaa !44
  store ptr %1, ptr %5, align 8, !tbaa !44
  store i64 %2, ptr %6, align 8, !tbaa !17
  call void @llvm.lifetime.start.p0(i64 8, ptr %7) #17
  store i64 0, ptr %7, align 8, !tbaa !17
  br label %8

8:                                                ; preds = %20, %3
  %9 = load i64, ptr %7, align 8, !tbaa !17
  %10 = load i64, ptr %6, align 8, !tbaa !17
  %11 = icmp ult i64 %9, %10
  br i1 %11, label %12, label %23

12:                                               ; preds = %8
  %13 = load ptr, ptr %5, align 8, !tbaa !44
  %14 = load i64, ptr %7, align 8, !tbaa !17
  %15 = getelementptr inbounds nuw i8, ptr %13, i64 %14
  %16 = load i8, ptr %15, align 1, !tbaa !45
  %17 = load ptr, ptr %4, align 8, !tbaa !44
  %18 = load i64, ptr %7, align 8, !tbaa !17
  %19 = getelementptr inbounds nuw i8, ptr %17, i64 %18
  store i8 %16, ptr %19, align 1, !tbaa !45
  br label %20

20:                                               ; preds = %12
  %21 = load i64, ptr %7, align 8, !tbaa !17
  %22 = add i64 %21, 1
  store i64 %22, ptr %7, align 8, !tbaa !17
  br label %8, !llvm.loop !112

23:                                               ; preds = %8
  call void @llvm.lifetime.end.p0(i64 8, ptr %7) #17
  ret void
}

; Function Attrs: mustprogress nounwind uwtable
define internal noundef ptr @_ZL14lodepng_mallocm(i64 noundef %0) #3 {
  %2 = alloca i64, align 8
  store i64 %0, ptr %2, align 8, !tbaa !17
  %3 = load i64, ptr %2, align 8, !tbaa !17
  %4 = call noalias ptr @malloc(i64 noundef %3) #18
  ret ptr %4
}

; Function Attrs: mustprogress uwtable
define void @_Z18lodepng_clear_exifP11LodePNGInfo(ptr noundef %0) #0 {
  %2 = alloca ptr, align 8
  store ptr %0, ptr %2, align 8, !tbaa !116
  %3 = load ptr, ptr %2, align 8, !tbaa !116
  %4 = getelementptr inbounds nuw %struct.LodePNGInfo, ptr %3, i32 0, i32 17
  %5 = load ptr, ptr %4, align 8, !tbaa !135
  call void @_ZL12lodepng_freePv(ptr noundef %5)
  %6 = load ptr, ptr %2, align 8, !tbaa !116
  %7 = getelementptr inbounds nuw %struct.LodePNGInfo, ptr %6, i32 0, i32 17
  store ptr null, ptr %7, align 8, !tbaa !135
  %8 = load ptr, ptr %2, align 8, !tbaa !116
  %9 = getelementptr inbounds nuw %struct.LodePNGInfo, ptr %8, i32 0, i32 18
  store i32 0, ptr %9, align 8, !tbaa !136
  %10 = load ptr, ptr %2, align 8, !tbaa !116
  %11 = getelementptr inbounds nuw %struct.LodePNGInfo, ptr %10, i32 0, i32 16
  store i32 0, ptr %11, align 8, !tbaa !134
  ret void
}

; Function Attrs: mustprogress uwtable
define noundef i32 @_Z16lodepng_set_exifP11LodePNGInfoPKhj(ptr noundef %0, ptr noundef %1, i32 noundef %2) #0 {
  %4 = alloca i32, align 4
  %5 = alloca ptr, align 8
  %6 = alloca ptr, align 8
  %7 = alloca i32, align 4
  store ptr %0, ptr %5, align 8, !tbaa !116
  store ptr %1, ptr %6, align 8, !tbaa !11
  store i32 %2, ptr %7, align 4, !tbaa !15
  %8 = load ptr, ptr %5, align 8, !tbaa !116
  %9 = getelementptr inbounds nuw %struct.LodePNGInfo, ptr %8, i32 0, i32 16
  %10 = load i32, ptr %9, align 8, !tbaa !134
  %11 = icmp ne i32 %10, 0
  br i1 %11, label %12, label %14

12:                                               ; preds = %3
  %13 = load ptr, ptr %5, align 8, !tbaa !116
  call void @_Z18lodepng_clear_exifP11LodePNGInfo(ptr noundef %13)
  br label %14

14:                                               ; preds = %12, %3
  %15 = load i32, ptr %7, align 4, !tbaa !15
  %16 = zext i32 %15 to i64
  %17 = call noundef ptr @_ZL14lodepng_mallocm(i64 noundef %16)
  %18 = load ptr, ptr %5, align 8, !tbaa !116
  %19 = getelementptr inbounds nuw %struct.LodePNGInfo, ptr %18, i32 0, i32 17
  store ptr %17, ptr %19, align 8, !tbaa !135
  %20 = load ptr, ptr %5, align 8, !tbaa !116
  %21 = getelementptr inbounds nuw %struct.LodePNGInfo, ptr %20, i32 0, i32 17
  %22 = load ptr, ptr %21, align 8, !tbaa !135
  %23 = icmp ne ptr %22, null
  br i1 %23, label %25, label %24

24:                                               ; preds = %14
  store i32 83, ptr %4, align 4
  br label %37

25:                                               ; preds = %14
  %26 = load ptr, ptr %5, align 8, !tbaa !116
  %27 = getelementptr inbounds nuw %struct.LodePNGInfo, ptr %26, i32 0, i32 17
  %28 = load ptr, ptr %27, align 8, !tbaa !135
  %29 = load ptr, ptr %6, align 8, !tbaa !11
  %30 = load i32, ptr %7, align 4, !tbaa !15
  %31 = zext i32 %30 to i64
  call void @_ZL14lodepng_memcpyPvPKvm(ptr noundef %28, ptr noundef %29, i64 noundef %31)
  %32 = load i32, ptr %7, align 4, !tbaa !15
  %33 = load ptr, ptr %5, align 8, !tbaa !116
  %34 = getelementptr inbounds nuw %struct.LodePNGInfo, ptr %33, i32 0, i32 18
  store i32 %32, ptr %34, align 8, !tbaa !136
  %35 = load ptr, ptr %5, align 8, !tbaa !116
  %36 = getelementptr inbounds nuw %struct.LodePNGInfo, ptr %35, i32 0, i32 16
  store i32 1, ptr %36, align 8, !tbaa !134
  store i32 0, ptr %4, align 4
  br label %37

37:                                               ; preds = %25, %24
  %38 = load i32, ptr %4, align 4
  ret i32 %38
}