; Function Attrs: mustprogress nounwind willreturn uwtable
define noundef range(i32 0, 84) i32 @_Z16lodepng_set_exifP11LodePNGInfoPKhj(ptr noundef captures(none) %0, ptr noundef readonly captures(none) %1, i32 noundef %2) local_unnamed_addr #11 {
  %4 = getelementptr inbounds nuw i8, ptr %0, i64 136
  %5 = load i32, ptr %4, align 8, !tbaa !249
  %.not = icmp eq i32 %5, 0
  br i1 %.not, label %10, label %6

6:                                                ; preds = %3
  %7 = getelementptr inbounds nuw i8, ptr %0, i64 144
  %8 = load ptr, ptr %7, align 8, !tbaa !250
  tail call void @free(ptr noundef %8) #28
  %9 = getelementptr inbounds nuw i8, ptr %0, i64 152
  store i32 0, ptr %9, align 8, !tbaa !251
  store i32 0, ptr %4, align 8, !tbaa !249
  br label %10

10:                                               ; preds = %6, %3
  %11 = zext i32 %2 to i64
  %12 = tail call noalias noundef ptr @malloc(i64 noundef %11) #27
  %13 = getelementptr inbounds nuw i8, ptr %0, i64 144
  store ptr %12, ptr %13, align 8, !tbaa !250
  %.not12 = icmp eq ptr %12, null
  br i1 %.not12, label %16, label %14

14:                                               ; preds = %10
  %.not.i = icmp eq i32 %2, 0
  br i1 %.not.i, label %_ZL14lodepng_memcpyPvPKvm.exit, label %.lr.ph.preheader.i

.lr.ph.preheader.i:                               ; preds = %14
  tail call void @llvm.memcpy.p0.p0.i64(ptr nonnull align 1 %12, ptr readonly align 1 %1, i64 %11, i1 false), !tbaa !18, !alias.scope !252
  br label %_ZL14lodepng_memcpyPvPKvm.exit

_ZL14lodepng_memcpyPvPKvm.exit:                   ; preds = %14, %.lr.ph.preheader.i
  %15 = getelementptr inbounds nuw i8, ptr %0, i64 152
  store i32 %2, ptr %15, align 8, !tbaa !251
  store i32 1, ptr %4, align 8, !tbaa !249
  br label %16

16:                                               ; preds = %10, %_ZL14lodepng_memcpyPvPKvm.exit
  %.0 = phi i32 [ 0, %_ZL14lodepng_memcpyPvPKvm.exit ], [ 83, %10 ]
  ret i32 %.0
}